target datalayout = "e-m:e-p270:32:32-p271:32:32-p272:64:64-i64:64-i128:128-f80:128-n8:16:32:64-S128"
target triple = "x86_64-pc-linux-gnu"

%struct._generic_N_Vector = type { ptr, ptr, ptr }
%struct._N_VectorContent_SensWrapper = type { ptr, i32, i32 }

; Function Attrs: nounwind uwtable
define double @N_VWrmsNorm_SensWrapper(ptr noundef %0, ptr noundef %1) #0 {
  %3 = alloca ptr, align 8
  %4 = alloca ptr, align 8
  %5 = alloca i32, align 4
  %6 = alloca double, align 8
  %7 = alloca double, align 8
  store ptr %0, ptr %3, align 8, !tbaa !10
  store ptr %1, ptr %4, align 8, !tbaa !10
  call void @llvm.lifetime.start.p0(i64 4, ptr %5) #5
  call void @llvm.lifetime.start.p0(i64 8, ptr %6) #5
  call void @llvm.lifetime.start.p0(i64 8, ptr %7) #5
  store double 0.000000e+00, ptr %6, align 8, !tbaa !61
  store i32 0, ptr %5, align 4, !tbaa !3
  br label %8

8:                                                ; preds = %42, %2
  %9 = load i32, ptr %5, align 4, !tbaa !3
  %10 = load ptr, ptr %3, align 8, !tbaa !10
  %11 = getelementptr inbounds nuw %struct._generic_N_Vector, ptr %10, i32 0, i32 0
  %12 = load ptr, ptr %11, align 8, !tbaa !45
  %13 = getelementptr inbounds nuw %struct._N_VectorContent_SensWrapper, ptr %12, i32 0, i32 1
  %14 = load i32, ptr %13, align 8, !tbaa !40
  %15 = icmp slt i32 %9, %14
  br i1 %15, label %16, label %45

16:                                               ; preds = %8
  %17 = load ptr, ptr %3, align 8, !tbaa !10
  %18 = getelementptr inbounds nuw %struct._generic_N_Vector, ptr %17, i32 0, i32 0
  %19 = load ptr, ptr %18, align 8, !tbaa !45
  %20 = getelementptr inbounds nuw %struct._N_VectorContent_SensWrapper, ptr %19, i32 0, i32 0
  %21 = load ptr, ptr %20, align 8, !tbaa !44
  %22 = load i32, ptr %5, align 4, !tbaa !3
  %23 = sext i32 %22 to i64
  %24 = getelementptr inbounds ptr, ptr %21, i64 %23
  %25 = load ptr, ptr %24, align 8, !tbaa !10
  %26 = load ptr, ptr %4, align 8, !tbaa !10
  %27 = getelementptr inbounds nuw %struct._generic_N_Vector, ptr %26, i32 0, i32 0
  %28 = load ptr, ptr %27, align 8, !tbaa !45
  %29 = getelementptr inbounds nuw %struct._N_VectorContent_SensWrapper, ptr %28, i32 0, i32 0
  %30 = load ptr, ptr %29, align 8, !tbaa !44
  %31 = load i32, ptr %5, align 4, !tbaa !3
  %32 = sext i32 %31 to i64
  %33 = getelementptr inbounds ptr, ptr %30, i64 %32
  %34 = load ptr, ptr %33, align 8, !tbaa !10
  %35 = call double @N_VWrmsNorm(ptr noundef %25, ptr noundef %34)
  store double %35, ptr %7, align 8, !tbaa !61
  %36 = load double, ptr %7, align 8, !tbaa !61
  %37 = load double, ptr %6, align 8, !tbaa !61
  %38 = fcmp ogt double %36, %37
  br i1 %38, label %39, label %41

39:                                               ; preds = %16
  %40 = load double, ptr %7, align 8, !tbaa !61
  store double %40, ptr %6, align 8, !tbaa !61
  br label %41

41:                                               ; preds = %39, %16
  br label %42

42:                                               ; preds = %41
  %43 = load i32, ptr %5, align 4, !tbaa !3
  %44 = add nsw i32 %43, 1
  store i32 %44, ptr %5, align 4, !tbaa !3
  br label %8

45:                                               ; preds = %8
  %46 = load double, ptr %6, align 8, !tbaa !61
  call void @llvm.lifetime.end.p0(i64 8, ptr %7) #5
  call void @llvm.lifetime.end.p0(i64 8, ptr %6) #5
  call void @llvm.lifetime.end.p0(i64 4, ptr %5) #5
  ret double %46
}